ccopy_reg
_reconstructor
p0
(csklearn.feature_extraction.hashing
FeatureHasher
p1
cdill._dill
_load_type
p2
(S'ObjectType'
p3
tp4
Rp5
Ntp6
Rp7
(dp8
S'_sklearn_version'
p9
S'0.20.2'
p10
sS'input_type'
p11
S'string'
p12
sS'dtype'
p13
cnumpy
float64
p14
sS'n_features'
p15
I15370
sS'alternate_sign'
p16
I01
sS'non_negative'
p17
I00
sb.